target datalayout = "e-m:e-p270:32:32-p271:32:32-p272:64:64-i64:64-i128:128-f80:128-n8:16:32:64-S128"
target triple = "x86_64-pc-linux-gnu"

%struct.DdManager = type { %struct.DdNode, ptr, ptr, ptr, ptr, ptr, ptr, ptr, i32, i32, double, double, double, i32, i32, i32, i32, i32, i32, ptr, ptr, %struct.DdSubtable, i32, i32, i32, i32, i32, i32, i32, double, i32, i32, i32, ptr, i64, double, i32, ptr, ptr, ptr, ptr, ptr, ptr, ptr, i32, ptr, ptr, ptr, ptr, ptr, ptr, i32, i32, i32, double, i32, i32, i32, i32, double, double, i32, i32, i32, i32, i32, i32, i32, i32, i32, ptr, ptr, i32, i32, i32, i32, i32, i32, ptr, ptr, ptr, ptr, ptr, ptr, ptr, ptr, i32, i64, i64, i64, i32, i64, i64, double, double, double, double, double, double, i32, ptr, ptr, i64 }
%struct.DdNode = type { i32, i32, ptr, %union.anon, i64 }
%union.anon = type { %struct.DdChildren }
%struct.DdChildren = type { ptr, ptr }
%struct.DdSubtable = type { ptr, i32, i32, i32, i32, i32, i32, i32, i32, i32, i32, i32 }
%struct.DdCache = type { ptr, ptr, i64, ptr, i32 }

; Function Attrs: nounwind uwtable
define void @cuddCacheInsert2(ptr noundef %0, ptr noundef %1, ptr noundef %2, ptr noundef %3, ptr noundef %4) #0 {
  %6 = alloca ptr, align 8
  %7 = alloca ptr, align 8
  %8 = alloca ptr, align 8
  %9 = alloca ptr, align 8
  %10 = alloca ptr, align 8
  %11 = alloca i32, align 4
  %12 = alloca i32, align 4
  %13 = alloca ptr, align 8
  store ptr %0, ptr %6, align 8, !tbaa !3
  store ptr %1, ptr %7, align 8, !tbaa !58
  store ptr %2, ptr %8, align 8, !tbaa !52
  store ptr %3, ptr %9, align 8, !tbaa !52
  store ptr %4, ptr %10, align 8, !tbaa !52
  call void @llvm.lifetime.start.p0(i64 4, ptr %11) #6
  call void @llvm.lifetime.start.p0(i64 4, ptr %12) #6
  call void @llvm.lifetime.start.p0(i64 8, ptr %13) #6
  %14 = load ptr, ptr %8, align 8, !tbaa !52
  %15 = ptrtoint ptr %14 to i64
  %16 = and i64 %15, -2
  %17 = inttoptr i64 %16 to ptr
  %18 = getelementptr inbounds nuw %struct.DdNode, ptr %17, i32 0, i32 4
  %19 = load i64, ptr %18, align 8, !tbaa !53
  %20 = shl i64 %19, 1
  %21 = load ptr, ptr %8, align 8, !tbaa !52
  %22 = ptrtoint ptr %21 to i64
  %23 = and i64 %22, 1
  %24 = trunc i64 %23 to i32
  %25 = sext i32 %24 to i64
  %26 = or i64 %20, %25
  %27 = trunc i64 %26 to i32
  %28 = load ptr, ptr %7, align 8, !tbaa !58
  %29 = ptrtoint ptr %28 to i64
  %30 = trunc i64 %29 to i32
  %31 = add i32 %27, %30
  %32 = mul i32 %31, 12582917
  %33 = load ptr, ptr %9, align 8, !tbaa !52
  %34 = ptrtoint ptr %33 to i64
  %35 = and i64 %34, -2
  %36 = inttoptr i64 %35 to ptr
  %37 = getelementptr inbounds nuw %struct.DdNode, ptr %36, i32 0, i32 4
  %38 = load i64, ptr %37, align 8, !tbaa !53
  %39 = shl i64 %38, 1
  %40 = load ptr, ptr %9, align 8, !tbaa !52
  %41 = ptrtoint ptr %40 to i64
  %42 = and i64 %41, 1
  %43 = trunc i64 %42 to i32
  %44 = sext i32 %43 to i64
  %45 = or i64 %39, %44
  %46 = trunc i64 %45 to i32
  %47 = add i32 %32, %46
  %48 = mul i32 %47, 4256249
  store i32 %48, ptr %12, align 4, !tbaa !8
  %49 = load i32, ptr %12, align 4, !tbaa !8
  %50 = load ptr, ptr %6, align 8, !tbaa !3
  %51 = getelementptr inbounds nuw %struct.DdManager, ptr %50, i32 0, i32 9
  %52 = load i32, ptr %51, align 4, !tbaa !34
  %53 = lshr i32 %49, %52
  store i32 %53, ptr %11, align 4, !tbaa !8
  %54 = load ptr, ptr %6, align 8, !tbaa !3
  %55 = getelementptr inbounds nuw %struct.DdManager, ptr %54, i32 0, i32 7
  %56 = load ptr, ptr %55, align 8, !tbaa !31
  %57 = load i32, ptr %11, align 4, !tbaa !8
  %58 = sext i32 %57 to i64
  %59 = getelementptr inbounds %struct.DdCache, ptr %56, i64 %58
  store ptr %59, ptr %13, align 8, !tbaa !54
  %60 = load ptr, ptr %13, align 8, !tbaa !54
  %61 = getelementptr inbounds nuw %struct.DdCache, ptr %60, i32 0, i32 3
  %62 = load ptr, ptr %61, align 8, !tbaa !48
  %63 = icmp ne ptr %62, null
  br i1 %63, label %64, label %69

64:                                               ; preds = %5
  %65 = load ptr, ptr %6, align 8, !tbaa !3
  %66 = getelementptr inbounds nuw %struct.DdManager, ptr %65, i32 0, i32 95
  %67 = load double, ptr %66, align 8, !tbaa !42
  %68 = fadd double %67, 1.000000e+00
  store double %68, ptr %66, align 8, !tbaa !42
  br label %69

69:                                               ; preds = %64, %5
  %70 = load ptr, ptr %6, align 8, !tbaa !3
  %71 = getelementptr inbounds nuw %struct.DdManager, ptr %70, i32 0, i32 96
  %72 = load double, ptr %71, align 8, !tbaa !43
  %73 = fadd double %72, 1.000000e+00
  store double %73, ptr %71, align 8, !tbaa !43
  %74 = load ptr, ptr %8, align 8, !tbaa !52
  %75 = load ptr, ptr %13, align 8, !tbaa !54
  %76 = getelementptr inbounds nuw %struct.DdCache, ptr %75, i32 0, i32 0
  store ptr %74, ptr %76, align 8, !tbaa !55
  %77 = load ptr, ptr %9, align 8, !tbaa !52
  %78 = load ptr, ptr %13, align 8, !tbaa !54
  %79 = getelementptr inbounds nuw %struct.DdCache, ptr %78, i32 0, i32 1
  store ptr %77, ptr %79, align 8, !tbaa !56
  %80 = load ptr, ptr %7, align 8, !tbaa !58
  %81 = ptrtoint ptr %80 to i64
  %82 = load ptr, ptr %13, align 8, !tbaa !54
  %83 = getelementptr inbounds nuw %struct.DdCache, ptr %82, i32 0, i32 2
  store i64 %81, ptr %83, align 8, !tbaa !46
  %84 = load ptr, ptr %10, align 8, !tbaa !52
  %85 = load ptr, ptr %13, align 8, !tbaa !54
  %86 = getelementptr inbounds nuw %struct.DdCache, ptr %85, i32 0, i32 3
  store ptr %84, ptr %86, align 8, !tbaa !48
  %87 = load i32, ptr %12, align 4, !tbaa !8
  %88 = load ptr, ptr %13, align 8, !tbaa !54
  %89 = getelementptr inbounds nuw %struct.DdCache, ptr %88, i32 0, i32 4
  store i32 %87, ptr %89, align 8, !tbaa !57
  call void @llvm.lifetime.end.p0(i64 8, ptr %13) #6
  call void @llvm.lifetime.end.p0(i64 4, ptr %12) #6
  call void @llvm.lifetime.end.p0(i64 4, ptr %11) #6
  ret void
}