; Function Attrs: mustprogress nofree norecurse nosync nounwind willreturn memory(readwrite, inaccessiblemem: none) uwtable
define void @cuddCacheInsert2(ptr noundef captures(none) %0, ptr noundef %1, ptr noundef %2, ptr noundef %3, ptr noundef %4) local_unnamed_addr #5 {
  %6 = ptrtoint ptr %2 to i64
  %7 = and i64 %6, -2
  %8 = inttoptr i64 %7 to ptr
  %9 = getelementptr inbounds nuw i8, ptr %8, i64 32
  %10 = load i64, ptr %9, align 8, !tbaa !40
  %11 = shl i64 %10, 1
  %12 = and i64 %6, 1
  %13 = or disjoint i64 %11, %12
  %14 = trunc i64 %13 to i32
  %15 = ptrtoint ptr %1 to i64
  %16 = trunc i64 %15 to i32
  %17 = add i32 %14, %16
  %18 = mul i32 %17, 12582917
  %19 = ptrtoint ptr %3 to i64
  %20 = and i64 %19, -2
  %21 = inttoptr i64 %20 to ptr
  %22 = getelementptr inbounds nuw i8, ptr %21, i64 32
  %23 = load i64, ptr %22, align 8, !tbaa !40
  %24 = shl i64 %23, 1
  %25 = and i64 %19, 1
  %26 = or disjoint i64 %24, %25
  %27 = trunc i64 %26 to i32
  %28 = add i32 %18, %27
  %29 = mul i32 %28, 4256249
  %30 = getelementptr inbounds nuw i8, ptr %0, i64 100
  %31 = load i32, ptr %30, align 4, !tbaa !31
  %32 = lshr i32 %29, %31
  %33 = getelementptr inbounds nuw i8, ptr %0, i64 88
  %34 = load ptr, ptr %33, align 8, !tbaa !28
  %35 = sext i32 %32 to i64
  %36 = getelementptr inbounds %struct.DdCache, ptr %34, i64 %35
  %37 = getelementptr inbounds nuw i8, ptr %36, i64 24
  %38 = load ptr, ptr %37, align 8, !tbaa !41
  %.not = icmp eq ptr %38, null
  br i1 %.not, label %43, label %39

39:                                               ; preds = %5
  %40 = getelementptr inbounds nuw i8, ptr %0, i64 696
  %41 = load double, ptr %40, align 8, !tbaa !43
  %42 = fadd double %41, 1.000000e+00
  store double %42, ptr %40, align 8, !tbaa !43
  br label %43

43:                                               ; preds = %39, %5
  %44 = getelementptr inbounds nuw i8, ptr %0, i64 704
  %45 = load double, ptr %44, align 8, !tbaa !44
  %46 = fadd double %45, 1.000000e+00
  store double %46, ptr %44, align 8, !tbaa !44
  store ptr %2, ptr %36, align 8, !tbaa !45
  %47 = getelementptr inbounds nuw i8, ptr %36, i64 8
  store ptr %3, ptr %47, align 8, !tbaa !46
  %48 = getelementptr inbounds nuw i8, ptr %36, i64 16
  store i64 %15, ptr %48, align 8, !tbaa !47
  store ptr %4, ptr %37, align 8, !tbaa !41
  %49 = getelementptr inbounds nuw i8, ptr %36, i64 32
  store i32 %29, ptr %49, align 8, !tbaa !48
  ret void
}